target datalayout = "e-m:e-p270:32:32-p271:32:32-p272:64:64-i64:64-i128:128-f80:128-n8:16:32:64-S128"
target triple = "x86_64-pc-linux-gnu"

%struct.PortControl = type { ptr, i32, ptr, i32 }

; Function Attrs: nounwind uwtable
define internal i64 @getRange(i64 noundef %0, i64 noundef %1) #0 {
  %3 = alloca i64, align 8
  %4 = alloca i64, align 8
  %5 = alloca i64, align 8
  store i64 %0, ptr %4, align 8
  store i64 %1, ptr %5, align 8
  %6 = load i64, ptr %5, align 8
  %7 = load i64, ptr %4, align 8
  %8 = icmp sgt i64 %6, %7
  br i1 %8, label %9, label %13

9:                                                ; preds = %2
  %10 = load i64, ptr %5, align 8
  %11 = load i64, ptr %4, align 8
  %12 = sub nsw i64 %10, %11
  store i64 %12, ptr %3, align 8
  br label %14

13:                                               ; preds = %2
  store i64 1, ptr %3, align 8
  br label %14

14:                                               ; preds = %13, %9
  %15 = load i64, ptr %3, align 8
  ret i64 %15
}

; Function Attrs: nounwind uwtable
define internal float @scaleVolumeValueToNormalized(i64 noundef %0, i64 noundef %1, i64 noundef %2) #0 {
  %4 = alloca i64, align 8
  %5 = alloca i64, align 8
  %6 = alloca i64, align 8
  store i64 %0, ptr %4, align 8
  store i64 %1, ptr %5, align 8
  store i64 %2, ptr %6, align 8
  %7 = load i64, ptr %4, align 8
  %8 = load i64, ptr %5, align 8
  %9 = sub nsw i64 %7, %8
  %10 = sitofp i64 %9 to float
  %11 = load i64, ptr %5, align 8
  %12 = load i64, ptr %6, align 8
  %13 = call i64 @getRange(i64 noundef %11, i64 noundef %12)
  %14 = sitofp i64 %13 to float
  %15 = fdiv float %10, %14
  ret float %15
}

; Function Attrs: nounwind uwtable
define internal i32 @isPlaybackFunction(i32 noundef %0) #0 {
  %2 = alloca i32, align 4
  store i32 %0, ptr %2, align 4
  %3 = load i32, ptr %2, align 4
  %4 = sext i32 %3 to i64
  %5 = and i64 %4, 65280
  %6 = trunc i64 %5 to i32
  ret i32 %6
}

; Function Attrs: nounwind uwtable
define hidden float @getRealVolume(ptr noundef %0, i32 noundef %1) #0 {
  %3 = alloca ptr, align 8
  %4 = alloca i32, align 4
  %5 = alloca float, align 4
  %6 = alloca i64, align 8
  %7 = alloca i64, align 8
  %8 = alloca i64, align 8
  store ptr %0, ptr %3, align 8
  store i32 %1, ptr %4, align 4
  store i64 0, ptr %6, align 8
  store i64 0, ptr %7, align 8
  store i64 0, ptr %8, align 8
  %9 = load ptr, ptr %3, align 8
  %10 = getelementptr inbounds %struct.PortControl, ptr %9, i32 0, i32 1
  %11 = load i32, ptr %10, align 8
  %12 = call i32 @isPlaybackFunction(i32 noundef %11)
  %13 = icmp ne i32 %12, 0
  br i1 %13, label %14, label %24

14:                                               ; preds = %2
  %15 = load ptr, ptr %3, align 8
  %16 = getelementptr inbounds %struct.PortControl, ptr %15, i32 0, i32 0
  %17 = load ptr, ptr %16, align 8
  %18 = call i32 @snd_mixer_selem_get_playback_volume_range(ptr noundef %17, ptr noundef %7, ptr noundef %8)
  %19 = load ptr, ptr %3, align 8
  %20 = getelementptr inbounds %struct.PortControl, ptr %19, i32 0, i32 0
  %21 = load ptr, ptr %20, align 8
  %22 = load i32, ptr %4, align 4
  %23 = call i32 @snd_mixer_selem_get_playback_volume(ptr noundef %21, i32 noundef %22, ptr noundef %6)
  br label %34

24:                                               ; preds = %2
  %25 = load ptr, ptr %3, align 8
  %26 = getelementptr inbounds %struct.PortControl, ptr %25, i32 0, i32 0
  %27 = load ptr, ptr %26, align 8
  %28 = call i32 @snd_mixer_selem_get_capture_volume_range(ptr noundef %27, ptr noundef %7, ptr noundef %8)
  %29 = load ptr, ptr %3, align 8
  %30 = getelementptr inbounds %struct.PortControl, ptr %29, i32 0, i32 0
  %31 = load ptr, ptr %30, align 8
  %32 = load i32, ptr %4, align 4
  %33 = call i32 @snd_mixer_selem_get_capture_volume(ptr noundef %31, i32 noundef %32, ptr noundef %6)
  br label %34

34:                                               ; preds = %24, %14
  %35 = load i64, ptr %6, align 8
  %36 = load i64, ptr %7, align 8
  %37 = load i64, ptr %8, align 8
  %38 = call float @scaleVolumeValueToNormalized(i64 noundef %35, i64 noundef %36, i64 noundef %37)
  store float %38, ptr %5, align 4
  %39 = load float, ptr %5, align 4
  ret float %39
}