; Function Attrs: nounwind uwtable
define hidden float @getRealVolume(ptr nocapture noundef readonly %0, i32 noundef %1) local_unnamed_addr #0 {
  %3 = alloca i64, align 8
  %4 = alloca i64, align 8
  %5 = alloca i64, align 8
  store i64 0, ptr %3, align 8
  store i64 0, ptr %4, align 8
  store i64 0, ptr %5, align 8
  %6 = getelementptr inbounds i8, ptr %0, i64 8
  %7 = load i32, ptr %6, align 8
  %8 = and i32 %7, 65280
  %.not = icmp eq i32 %8, 0
  %9 = load ptr, ptr %0, align 8
  br i1 %.not, label %14, label %10

10:                                               ; preds = %2
  %11 = call i32 @snd_mixer_selem_get_playback_volume_range(ptr noundef %9, ptr noundef nonnull %4, ptr noundef nonnull %5) #11
  %12 = load ptr, ptr %0, align 8
  %13 = call i32 @snd_mixer_selem_get_playback_volume(ptr noundef %12, i32 noundef %1, ptr noundef nonnull %3) #11
  br label %18

14:                                               ; preds = %2
  %15 = call i32 @snd_mixer_selem_get_capture_volume_range(ptr noundef %9, ptr noundef nonnull %4, ptr noundef nonnull %5) #11
  %16 = load ptr, ptr %0, align 8
  %17 = call i32 @snd_mixer_selem_get_capture_volume(ptr noundef %16, i32 noundef %1, ptr noundef nonnull %3) #11
  br label %18

18:                                               ; preds = %14, %10
  %19 = load i64, ptr %3, align 8
  %20 = load i64, ptr %4, align 8
  %21 = load i64, ptr %5, align 8
  %22 = sub nsw i64 %19, %20
  %23 = sitofp i64 %22 to float
  %24 = icmp sgt i64 %21, %20
  %25 = sub nsw i64 %21, %20
  %.0.i.i = select i1 %24, i64 %25, i64 1
  %26 = sitofp i64 %.0.i.i to float
  %27 = fdiv float %23, %26
  ret float %27
}